; Function Attrs: nounwind ssp uwtable
define hidden void @_sodium_ristretto255_from_hash(ptr noundef %0, ptr noundef readonly captures(none) %1) local_unnamed_addr #4 {
  %3 = alloca [5 x i64], align 16
  %4 = alloca [5 x i64], align 16
  %5 = alloca %struct.ge25519_p3, align 8
  %6 = alloca %struct.ge25519_p3, align 8
  %7 = alloca %struct.ge25519_p3, align 8
  call void @llvm.lifetime.start.p0(i64 40, ptr nonnull %3) #12
  call void @llvm.lifetime.start.p0(i64 40, ptr nonnull %4) #12
  call void @llvm.lifetime.start.p0(i64 160, ptr nonnull %5) #12
  call void @llvm.lifetime.start.p0(i64 160, ptr nonnull %6) #12
  call void @llvm.lifetime.start.p0(i64 160, ptr nonnull %7) #12
  %8 = load i64, ptr %1, align 1
  %9 = and i64 %8, 2251799813685247
  %10 = getelementptr i8, ptr %1, i64 6
  %11 = load i64, ptr %10, align 1
  %12 = lshr i64 %11, 3
  %13 = and i64 %12, 2251799813685247
  %14 = getelementptr i8, ptr %1, i64 12
  %15 = load i64, ptr %14, align 1
  %16 = lshr i64 %15, 6
  %17 = and i64 %16, 2251799813685247
  %18 = getelementptr i8, ptr %1, i64 19
  %19 = load i64, ptr %18, align 1
  %20 = lshr i64 %19, 1
  %21 = and i64 %20, 2251799813685247
  %22 = getelementptr i8, ptr %1, i64 24
  %23 = load i64, ptr %22, align 1
  %24 = lshr i64 %23, 12
  %25 = and i64 %24, 2251799813685247
  store i64 %9, ptr %3, align 16
  %26 = getelementptr inbounds nuw i8, ptr %3, i64 8
  store i64 %13, ptr %26, align 8
  %27 = getelementptr inbounds nuw i8, ptr %3, i64 16
  store i64 %17, ptr %27, align 16
  %28 = getelementptr inbounds nuw i8, ptr %3, i64 24
  store i64 %21, ptr %28, align 8
  %29 = getelementptr inbounds nuw i8, ptr %3, i64 32
  store i64 %25, ptr %29, align 16
  %30 = getelementptr i8, ptr %1, i64 32
  %31 = load i64, ptr %30, align 1
  %32 = and i64 %31, 2251799813685247
  %33 = getelementptr i8, ptr %1, i64 38
  %34 = load i64, ptr %33, align 1
  %35 = lshr i64 %34, 3
  %36 = and i64 %35, 2251799813685247
  %37 = getelementptr i8, ptr %1, i64 44
  %38 = load i64, ptr %37, align 1
  %39 = lshr i64 %38, 6
  %40 = and i64 %39, 2251799813685247
  %41 = getelementptr i8, ptr %1, i64 51
  %42 = load i64, ptr %41, align 1
  %43 = lshr i64 %42, 1
  %44 = and i64 %43, 2251799813685247
  %45 = getelementptr i8, ptr %1, i64 56
  %46 = load i64, ptr %45, align 1
  %47 = lshr i64 %46, 12
  %48 = and i64 %47, 2251799813685247
  store i64 %32, ptr %4, align 16
  %49 = getelementptr inbounds nuw i8, ptr %4, i64 8
  store i64 %36, ptr %49, align 8
  %50 = getelementptr inbounds nuw i8, ptr %4, i64 16
  store i64 %40, ptr %50, align 16
  %51 = getelementptr inbounds nuw i8, ptr %4, i64 24
  store i64 %44, ptr %51, align 8
  %52 = getelementptr inbounds nuw i8, ptr %4, i64 32
  store i64 %48, ptr %52, align 16
  call fastcc void @ristretto255_elligator(ptr noundef %5, ptr noundef %3)
  call fastcc void @ristretto255_elligator(ptr noundef %6, ptr noundef %4)
  call void @_sodium_ge25519_p3_add(ptr noundef nonnull %7, ptr noundef nonnull %5, ptr noundef nonnull %6)
  call void @_sodium_ristretto255_p3_tobytes(ptr noundef %0, ptr noundef nonnull %7)
  call void @llvm.lifetime.end.p0(i64 160, ptr nonnull %7) #12
  call void @llvm.lifetime.end.p0(i64 160, ptr nonnull %6) #12
  call void @llvm.lifetime.end.p0(i64 160, ptr nonnull %5) #12
  call void @llvm.lifetime.end.p0(i64 40, ptr nonnull %4) #12
  call void @llvm.lifetime.end.p0(i64 40, ptr nonnull %3) #12
  ret void
}